; Function Attrs: mustprogress nounwind uwtable
define hidden void @_ZN13StubGenerator20generate_ghash_stubsEv(ptr noundef nonnull align 8 dereferenceable(24) %0) local_unnamed_addr #1 align 2 {
  %2 = load i8, ptr @UseGHASHIntrinsics, align 1
  %3 = trunc i8 %2 to i1
  br i1 %3, label %4, label %11

4:                                                ; preds = %1
  %5 = load i64, ptr @_ZN19Abstract_VM_Version9_featuresE, align 8
  %6 = and i64 %5, 262144
  %.not = icmp eq i64 %6, 0
  br i1 %.not, label %9, label %7

7:                                                ; preds = %4
  %8 = tail call noundef ptr @_ZN13StubGenerator32generate_avx_ghash_processBlocksEv(ptr noundef nonnull align 8 dereferenceable(24) %0)
  br label %.sink.split

9:                                                ; preds = %4
  %10 = tail call noundef ptr @_ZN13StubGenerator28generate_ghash_processBlocksEv(ptr noundef nonnull align 8 dereferenceable(24) %0)
  br label %.sink.split

.sink.split:                                      ; preds = %9, %7
  %.sink = phi ptr [ %8, %7 ], [ %10, %9 ]
  store ptr %.sink, ptr @_ZN12StubRoutines20_ghash_processBlocksE, align 8
  br label %11

11:                                               ; preds = %.sink.split, %1
  ret void
}